target datalayout = "e-m:e-p270:32:32-p271:32:32-p272:64:64-i64:64-i128:128-f80:128-n8:16:32:64-S128"
target triple = "x86_64-pc-linux-gnu"

%struct.archive_entry = type { ptr, ptr, i32, %struct.aest, i32, %struct.archive_mstring, i64, i64, %struct.archive_mstring, %struct.archive_mstring, %struct.archive_mstring, %struct.archive_mstring, %struct.archive_mstring, i8, ptr, i64, %struct.ae_digest, %struct.archive_acl, ptr, ptr, ptr, ptr, ptr, [12 x i8], i32 }
%struct.aest = type { i64, i32, i64, i32, i64, i32, i64, i32, i64, i64, i32, i64, i64, i32, i64, i64, i64, i32, i64, i64, i64 }
%struct.archive_mstring = type { %struct.archive_string, %struct.archive_string, %struct.archive_wstring, %struct.archive_string, i32 }
%struct.archive_wstring = type { ptr, i64, i64 }
%struct.archive_string = type { ptr, i64, i64 }
%struct.ae_digest = type { [16 x i8], [20 x i8], [20 x i8], [32 x i8], [48 x i8], [64 x i8] }
%struct.archive_acl = type { i32, ptr, ptr, i32, ptr, ptr, i32 }
%struct.ae_sparse = type { ptr, i64, i64 }

; Function Attrs: nounwind uwtable
define dso_local void @archive_entry_sparse_clear(ptr noundef %0) #0 {
  %2 = alloca ptr, align 8
  %3 = alloca ptr, align 8
  store ptr %0, ptr %2, align 8, !tbaa !4
  call void @llvm.lifetime.start.p0(i64 8, ptr %3) #5
  br label %4

4:                                                ; preds = %9, %1
  %5 = load ptr, ptr %2, align 8, !tbaa !4
  %6 = getelementptr inbounds nuw %struct.archive_entry, ptr %5, i32 0, i32 20
  %7 = load ptr, ptr %6, align 8, !tbaa !9
  %8 = icmp ne ptr %7, null
  br i1 %8, label %9, label %21

9:                                                ; preds = %4
  %10 = load ptr, ptr %2, align 8, !tbaa !4
  %11 = getelementptr inbounds nuw %struct.archive_entry, ptr %10, i32 0, i32 20
  %12 = load ptr, ptr %11, align 8, !tbaa !9
  %13 = getelementptr inbounds nuw %struct.ae_sparse, ptr %12, i32 0, i32 0
  %14 = load ptr, ptr %13, align 8, !tbaa !25
  store ptr %14, ptr %3, align 8, !tbaa !27
  %15 = load ptr, ptr %2, align 8, !tbaa !4
  %16 = getelementptr inbounds nuw %struct.archive_entry, ptr %15, i32 0, i32 20
  %17 = load ptr, ptr %16, align 8, !tbaa !9
  call void @free(ptr noundef %17) #5
  %18 = load ptr, ptr %3, align 8, !tbaa !27
  %19 = load ptr, ptr %2, align 8, !tbaa !4
  %20 = getelementptr inbounds nuw %struct.archive_entry, ptr %19, i32 0, i32 20
  store ptr %18, ptr %20, align 8, !tbaa !9
  br label %4, !llvm.loop !28

21:                                               ; preds = %4
  %22 = load ptr, ptr %2, align 8, !tbaa !4
  %23 = getelementptr inbounds nuw %struct.archive_entry, ptr %22, i32 0, i32 21
  store ptr null, ptr %23, align 8, !tbaa !30
  call void @llvm.lifetime.end.p0(i64 8, ptr %3) #5
  ret void
}

; Function Attrs: nounwind uwtable
define dso_local i32 @archive_entry_sparse_count(ptr noundef %0) #0 {
  %2 = alloca ptr, align 8
  %3 = alloca ptr, align 8
  %4 = alloca i32, align 4
  store ptr %0, ptr %2, align 8, !tbaa !4
  call void @llvm.lifetime.start.p0(i64 8, ptr %3) #5
  call void @llvm.lifetime.start.p0(i64 4, ptr %4) #5
  store i32 0, ptr %4, align 4, !tbaa !34
  %5 = load ptr, ptr %2, align 8, !tbaa !4
  %6 = getelementptr inbounds nuw %struct.archive_entry, ptr %5, i32 0, i32 20
  %7 = load ptr, ptr %6, align 8, !tbaa !9
  store ptr %7, ptr %3, align 8, !tbaa !27
  br label %8

8:                                                ; preds = %14, %1
  %9 = load ptr, ptr %3, align 8, !tbaa !27
  %10 = icmp ne ptr %9, null
  br i1 %10, label %11, label %18

11:                                               ; preds = %8
  %12 = load i32, ptr %4, align 4, !tbaa !34
  %13 = add nsw i32 %12, 1
  store i32 %13, ptr %4, align 4, !tbaa !34
  br label %14

14:                                               ; preds = %11
  %15 = load ptr, ptr %3, align 8, !tbaa !27
  %16 = getelementptr inbounds nuw %struct.ae_sparse, ptr %15, i32 0, i32 0
  %17 = load ptr, ptr %16, align 8, !tbaa !25
  store ptr %17, ptr %3, align 8, !tbaa !27
  br label %8, !llvm.loop !35

18:                                               ; preds = %8
  %19 = load i32, ptr %4, align 4, !tbaa !34
  %20 = icmp eq i32 %19, 1
  br i1 %20, label %21, label %39

21:                                               ; preds = %18
  %22 = load ptr, ptr %2, align 8, !tbaa !4
  %23 = getelementptr inbounds nuw %struct.archive_entry, ptr %22, i32 0, i32 20
  %24 = load ptr, ptr %23, align 8, !tbaa !9
  store ptr %24, ptr %3, align 8, !tbaa !27
  %25 = load ptr, ptr %3, align 8, !tbaa !27
  %26 = getelementptr inbounds nuw %struct.ae_sparse, ptr %25, i32 0, i32 1
  %27 = load i64, ptr %26, align 8, !tbaa !32
  %28 = icmp eq i64 %27, 0
  br i1 %28, label %29, label %38

29:                                               ; preds = %21
  %30 = load ptr, ptr %3, align 8, !tbaa !27
  %31 = getelementptr inbounds nuw %struct.ae_sparse, ptr %30, i32 0, i32 2
  %32 = load i64, ptr %31, align 8, !tbaa !33
  %33 = load ptr, ptr %2, align 8, !tbaa !4
  %34 = call i64 @archive_entry_size(ptr noundef %33)
  %35 = icmp sge i64 %32, %34
  br i1 %35, label %36, label %38

36:                                               ; preds = %29
  store i32 0, ptr %4, align 4, !tbaa !34
  %37 = load ptr, ptr %2, align 8, !tbaa !4
  call void @archive_entry_sparse_clear(ptr noundef %37)
  br label %38

38:                                               ; preds = %36, %29, %21
  br label %39

39:                                               ; preds = %38, %18
  %40 = load i32, ptr %4, align 4, !tbaa !34
  call void @llvm.lifetime.end.p0(i64 4, ptr %4) #5
  call void @llvm.lifetime.end.p0(i64 8, ptr %3) #5
  ret i32 %40
}