; Function Attrs: nounwind uwtable
define dso_local i32 @archive_entry_sparse_count(ptr noundef %0) local_unnamed_addr #0 {
  %2 = getelementptr inbounds nuw i8, ptr %0, i64 1136
  br label %3

3:                                                ; preds = %3, %1
  %.010.in = phi ptr [ %2, %1 ], [ %.010, %3 ]
  %.0 = phi i32 [ 0, %1 ], [ %4, %3 ]
  %.010 = load ptr, ptr %.010.in, align 8, !tbaa !30
  %.not = icmp eq ptr %.010, null
  %4 = add nuw nsw i32 %.0, 1
  br i1 %.not, label %5, label %3, !llvm.loop !31

5:                                                ; preds = %3
  %6 = icmp eq i32 %.0, 1
  br i1 %6, label %7, label %21

7:                                                ; preds = %5
  %8 = load ptr, ptr %2, align 8, !tbaa !4
  %9 = getelementptr inbounds nuw i8, ptr %8, i64 8
  %10 = load i64, ptr %9, align 8, !tbaa !28
  %11 = icmp eq i64 %10, 0
  br i1 %11, label %12, label %21

12:                                               ; preds = %7
  %13 = getelementptr inbounds nuw i8, ptr %8, i64 16
  %14 = load i64, ptr %13, align 8, !tbaa !29
  %15 = tail call i64 @archive_entry_size(ptr noundef nonnull %0) #5
  %.not11 = icmp slt i64 %14, %15
  br i1 %.not11, label %21, label %16

16:                                               ; preds = %12
  %17 = load ptr, ptr %2, align 8, !tbaa !4
  %.not6.i = icmp eq ptr %17, null
  br i1 %.not6.i, label %archive_entry_sparse_clear.exit, label %.lr.ph.i

.lr.ph.i:                                         ; preds = %16, %.lr.ph.i
  %18 = phi ptr [ %19, %.lr.ph.i ], [ %17, %16 ]
  %19 = load ptr, ptr %18, align 8, !tbaa !23
  tail call void @free(ptr noundef nonnull %18) #5
  store ptr %19, ptr %2, align 8, !tbaa !4
  %.not.i = icmp eq ptr %19, null
  br i1 %.not.i, label %archive_entry_sparse_clear.exit, label %.lr.ph.i, !llvm.loop !25

archive_entry_sparse_clear.exit:                  ; preds = %.lr.ph.i, %16
  %20 = getelementptr inbounds nuw i8, ptr %0, i64 1144
  store ptr null, ptr %20, align 8, !tbaa !27
  br label %21

21:                                               ; preds = %7, %12, %archive_entry_sparse_clear.exit, %5
  %.1 = phi i32 [ 0, %archive_entry_sparse_clear.exit ], [ 1, %12 ], [ 1, %7 ], [ %.0, %5 ]
  ret i32 %.1
}